; Function Attrs: mustprogress nofree norecurse nosync nounwind willreturn memory(readwrite, inaccessiblemem: none) uwtable
define internal noundef ptr @gen_get_name(ptr noundef readonly captures(none) %0, ptr readnone captures(none) %1) #0 {
  %3 = getelementptr inbounds nuw i8, ptr %0, i64 24
  %4 = load ptr, ptr %3, align 8, !tbaa !117
  %5 = load i32, ptr %4, align 8, !tbaa !4
  %6 = icmp slt i32 %5, 0
  br i1 %6, label %_Py_NewRef.exit, label %7

7:                                                ; preds = %2
  %8 = add nuw i32 %5, 1
  store i32 %8, ptr %4, align 8, !tbaa !4
  br label %_Py_NewRef.exit

_Py_NewRef.exit:                                  ; preds = %2, %7
  ret ptr %4
}